target datalayout = "e-m:e-p270:32:32-p271:32:32-p272:64:64-i64:64-i128:128-f80:128-n8:16:32:64-S128"
target triple = "x86_64-pc-linux-gnu"

%"class.duckdb_re2::StringPiece" = type { ptr, i64 }

; Function Attrs: mustprogress nounwind uwtable
define linkonce_odr hidden void @_ZN10duckdb_re211StringPiece13remove_prefixEm(ptr noundef nonnull align 8 dereferenceable(16) %0, i64 noundef %1) #0 comdat align 2 {
  %3 = alloca ptr, align 8
  %4 = alloca i64, align 8
  store ptr %0, ptr %3, align 8, !tbaa !39
  store i64 %1, ptr %4, align 8, !tbaa !83
  %5 = load ptr, ptr %3, align 8
  %6 = load i64, ptr %4, align 8, !tbaa !83
  %7 = getelementptr inbounds nuw %"class.duckdb_re2::StringPiece", ptr %5, i32 0, i32 0
  %8 = load ptr, ptr %7, align 8, !tbaa !63
  %9 = getelementptr inbounds nuw i8, ptr %8, i64 %6
  store ptr %9, ptr %7, align 8, !tbaa !63
  %10 = load i64, ptr %4, align 8, !tbaa !83
  %11 = getelementptr inbounds nuw %"class.duckdb_re2::StringPiece", ptr %5, i32 0, i32 1
  %12 = load i64, ptr %11, align 8, !tbaa !65
  %13 = sub i64 %12, %10
  store i64 %13, ptr %11, align 8, !tbaa !65
  ret void
}

; Function Attrs: mustprogress uwtable
define hidden noundef zeroext i1 @_ZN10duckdb_re23RE215FindAndConsumeNEPNS_11StringPieceERKS0_PKPKNS0_3ArgEi(ptr noundef %0, ptr noundef nonnull align 8 dereferenceable(148) %1, ptr noundef %2, i32 noundef %3) #1 align 2 {
  %5 = alloca i1, align 1
  %6 = alloca ptr, align 8
  %7 = alloca ptr, align 8
  %8 = alloca ptr, align 8
  %9 = alloca i32, align 4
  %10 = alloca i64, align 8
  %11 = alloca i32, align 4
  store ptr %0, ptr %6, align 8, !tbaa !39
  store ptr %1, ptr %7, align 8, !tbaa !29
  store ptr %2, ptr %8, align 8, !tbaa !140
  store i32 %3, ptr %9, align 4, !tbaa !3
  call void @llvm.lifetime.start.p0(i64 8, ptr %10) #20
  %12 = load ptr, ptr %7, align 8, !tbaa !29
  %13 = load ptr, ptr %6, align 8, !tbaa !39
  %14 = load ptr, ptr %8, align 8, !tbaa !140
  %15 = load i32, ptr %9, align 4, !tbaa !3
  %16 = call noundef zeroext i1 @_ZNK10duckdb_re23RE27DoMatchERKNS_11StringPieceENS0_6AnchorEPmPKPKNS0_3ArgEi(ptr noundef nonnull align 8 dereferenceable(148) %12, ptr noundef nonnull align 8 dereferenceable(16) %13, i32 noundef 0, ptr noundef %10, ptr noundef %14, i32 noundef %15)
  br i1 %16, label %17, label %20

17:                                               ; preds = %4
  %18 = load ptr, ptr %6, align 8, !tbaa !39
  %19 = load i64, ptr %10, align 8, !tbaa !83
  call void @_ZN10duckdb_re211StringPiece13remove_prefixEm(ptr noundef nonnull align 8 dereferenceable(16) %18, i64 noundef %19)
  store i1 true, ptr %5, align 1
  store i32 1, ptr %11, align 4
  br label %21

20:                                               ; preds = %4
  store i1 false, ptr %5, align 1
  store i32 1, ptr %11, align 4
  br label %21

21:                                               ; preds = %20, %17
  call void @llvm.lifetime.end.p0(i64 8, ptr %10) #20
  %22 = load i1, ptr %5, align 1
  ret i1 %22
}